target datalayout = "e-m:e-p270:32:32-p271:32:32-p272:64:64-i64:64-i128:128-f80:128-n8:16:32:64-S128"
target triple = "x86_64-pc-linux-gnu"

%struct.AVComplexInt32 = type { i32, i32 }
%struct.AVTXContext = type { i32, i32, ptr, ptr, ptr, ptr, [4 x ptr], i32, [4 x ptr], ptr, i32, i64, i32, float, double, ptr }

; Function Attrs: nounwind uwtable
define internal void @ff_tx_fft_pfa_ns_int32_c(ptr noundef %0, ptr noundef %1, ptr noundef %2, i64 noundef %3) #4 {
  %5 = alloca ptr, align 8
  %6 = alloca ptr, align 8
  %7 = alloca ptr, align 8
  %8 = alloca i64, align 8
  %9 = alloca i32, align 4
  %10 = alloca i32, align 4
  %11 = alloca i32, align 4
  %12 = alloca ptr, align 8
  %13 = alloca ptr, align 8
  %14 = alloca ptr, align 8
  %15 = alloca ptr, align 8
  %16 = alloca ptr, align 8
  %17 = alloca ptr, align 8
  %18 = alloca i32, align 4
  %19 = alloca i32, align 4
  %20 = alloca i32, align 4
  store ptr %0, ptr %5, align 8, !tbaa !17
  store ptr %1, ptr %6, align 8, !tbaa !8
  store ptr %2, ptr %7, align 8, !tbaa !8
  store i64 %3, ptr %8, align 8, !tbaa !30
  call void @llvm.lifetime.start.p0(i64 4, ptr %9) #10
  %21 = load ptr, ptr %5, align 8, !tbaa !17
  %22 = getelementptr inbounds nuw %struct.AVTXContext, ptr %21, i32 0, i32 5
  %23 = load ptr, ptr %22, align 8, !tbaa !65
  %24 = getelementptr inbounds %struct.AVTXContext, ptr %23, i64 0
  %25 = getelementptr inbounds nuw %struct.AVTXContext, ptr %24, i32 0, i32 0
  %26 = load i32, ptr %25, align 8, !tbaa !21
  store i32 %26, ptr %9, align 4, !tbaa !4
  call void @llvm.lifetime.start.p0(i64 4, ptr %10) #10
  %27 = load ptr, ptr %5, align 8, !tbaa !17
  %28 = getelementptr inbounds nuw %struct.AVTXContext, ptr %27, i32 0, i32 5
  %29 = load ptr, ptr %28, align 8, !tbaa !65
  %30 = getelementptr inbounds %struct.AVTXContext, ptr %29, i64 1
  %31 = getelementptr inbounds nuw %struct.AVTXContext, ptr %30, i32 0, i32 0
  %32 = load i32, ptr %31, align 8, !tbaa !21
  store i32 %32, ptr %10, align 4, !tbaa !4
  call void @llvm.lifetime.start.p0(i64 4, ptr %11) #10
  %33 = load ptr, ptr %5, align 8, !tbaa !17
  %34 = getelementptr inbounds nuw %struct.AVTXContext, ptr %33, i32 0, i32 0
  %35 = load i32, ptr %34, align 8, !tbaa !21
  store i32 %35, ptr %11, align 4, !tbaa !4
  call void @llvm.lifetime.start.p0(i64 8, ptr %12) #10
  %36 = load ptr, ptr %5, align 8, !tbaa !17
  %37 = getelementptr inbounds nuw %struct.AVTXContext, ptr %36, i32 0, i32 2
  %38 = load ptr, ptr %37, align 8, !tbaa !66
  store ptr %38, ptr %12, align 8, !tbaa !19
  call void @llvm.lifetime.start.p0(i64 8, ptr %13) #10
  %39 = load ptr, ptr %12, align 8, !tbaa !19
  %40 = load i32, ptr %11, align 4, !tbaa !4
  %41 = sext i32 %40 to i64
  %42 = getelementptr inbounds i32, ptr %39, i64 %41
  store ptr %42, ptr %13, align 8, !tbaa !19
  call void @llvm.lifetime.start.p0(i64 8, ptr %14) #10
  %43 = load ptr, ptr %5, align 8, !tbaa !17
  %44 = getelementptr inbounds nuw %struct.AVTXContext, ptr %43, i32 0, i32 5
  %45 = load ptr, ptr %44, align 8, !tbaa !65
  %46 = getelementptr inbounds %struct.AVTXContext, ptr %45, i64 1
  %47 = getelementptr inbounds nuw %struct.AVTXContext, ptr %46, i32 0, i32 2
  %48 = load ptr, ptr %47, align 8, !tbaa !66
  store ptr %48, ptr %14, align 8, !tbaa !19
  call void @llvm.lifetime.start.p0(i64 8, ptr %15) #10
  %49 = load ptr, ptr %5, align 8, !tbaa !17
  %50 = getelementptr inbounds nuw %struct.AVTXContext, ptr %49, i32 0, i32 5
  %51 = load ptr, ptr %50, align 8, !tbaa !65
  %52 = getelementptr inbounds %struct.AVTXContext, ptr %51, i64 1
  %53 = getelementptr inbounds nuw %struct.AVTXContext, ptr %52, i32 0, i32 11
  %54 = load i64, ptr %53, align 8, !tbaa !63
  %55 = and i64 %54, 1
  %56 = icmp ne i64 %55, 0
  br i1 %56, label %57, label %61

57:                                               ; preds = %4
  %58 = load ptr, ptr %5, align 8, !tbaa !17
  %59 = getelementptr inbounds nuw %struct.AVTXContext, ptr %58, i32 0, i32 4
  %60 = load ptr, ptr %59, align 8, !tbaa !64
  br label %65

61:                                               ; preds = %4
  %62 = load ptr, ptr %5, align 8, !tbaa !17
  %63 = getelementptr inbounds nuw %struct.AVTXContext, ptr %62, i32 0, i32 3
  %64 = load ptr, ptr %63, align 8, !tbaa !31
  br label %65

65:                                               ; preds = %61, %57
  %66 = phi ptr [ %60, %57 ], [ %64, %61 ]
  store ptr %66, ptr %15, align 8, !tbaa !57
  call void @llvm.lifetime.start.p0(i64 8, ptr %16) #10
  %67 = load ptr, ptr %7, align 8, !tbaa !8
  store ptr %67, ptr %16, align 8, !tbaa !57
  call void @llvm.lifetime.start.p0(i64 8, ptr %17) #10
  %68 = load ptr, ptr %6, align 8, !tbaa !8
  store ptr %68, ptr %17, align 8, !tbaa !57
  %69 = load i64, ptr %8, align 8, !tbaa !30
  %70 = udiv i64 %69, 8
  store i64 %70, ptr %8, align 8, !tbaa !30
  call void @llvm.lifetime.start.p0(i64 4, ptr %18) #10
  store i32 0, ptr %18, align 4, !tbaa !4
  br label %71

71:                                               ; preds = %104, %65
  %72 = load i32, ptr %18, align 4, !tbaa !4
  %73 = load i32, ptr %10, align 4, !tbaa !4
  %74 = icmp slt i32 %72, %73
  br i1 %74, label %76, label %75

75:                                               ; preds = %71
  call void @llvm.lifetime.end.p0(i64 4, ptr %18) #10
  br label %107

76:                                               ; preds = %71
  %77 = load ptr, ptr %5, align 8, !tbaa !17
  %78 = getelementptr inbounds nuw %struct.AVTXContext, ptr %77, i32 0, i32 6
  %79 = getelementptr inbounds [4 x ptr], ptr %78, i64 0, i64 0
  %80 = load ptr, ptr %79, align 8, !tbaa !8
  %81 = load ptr, ptr %5, align 8, !tbaa !17
  %82 = getelementptr inbounds nuw %struct.AVTXContext, ptr %81, i32 0, i32 5
  %83 = load ptr, ptr %82, align 8, !tbaa !65
  %84 = getelementptr inbounds %struct.AVTXContext, ptr %83, i64 0
  %85 = load ptr, ptr %5, align 8, !tbaa !17
  %86 = getelementptr inbounds nuw %struct.AVTXContext, ptr %85, i32 0, i32 4
  %87 = load ptr, ptr %86, align 8, !tbaa !64
  %88 = load ptr, ptr %14, align 8, !tbaa !19
  %89 = load i32, ptr %18, align 4, !tbaa !4
  %90 = sext i32 %89 to i64
  %91 = getelementptr inbounds i32, ptr %88, i64 %90
  %92 = load i32, ptr %91, align 4, !tbaa !4
  %93 = sext i32 %92 to i64
  %94 = getelementptr inbounds %struct.AVComplexInt32, ptr %87, i64 %93
  %95 = load ptr, ptr %16, align 8, !tbaa !57
  %96 = load i32, ptr %18, align 4, !tbaa !4
  %97 = load i32, ptr %9, align 4, !tbaa !4
  %98 = mul nsw i32 %96, %97
  %99 = sext i32 %98 to i64
  %100 = getelementptr inbounds %struct.AVComplexInt32, ptr %95, i64 %99
  %101 = load i32, ptr %10, align 4, !tbaa !4
  %102 = sext i32 %101 to i64
  %103 = mul i64 %102, 8
  call void %80(ptr noundef %84, ptr noundef %94, ptr noundef %100, i64 noundef %103)
  br label %104

104:                                              ; preds = %76
  %105 = load i32, ptr %18, align 4, !tbaa !4
  %106 = add nsw i32 %105, 1
  store i32 %106, ptr %18, align 4, !tbaa !4
  br label %71, !llvm.loop !79

107:                                              ; preds = %75
  call void @llvm.lifetime.start.p0(i64 4, ptr %19) #10
  store i32 0, ptr %19, align 4, !tbaa !4
  br label %108

108:                                              ; preds = %136, %107
  %109 = load i32, ptr %19, align 4, !tbaa !4
  %110 = load i32, ptr %9, align 4, !tbaa !4
  %111 = icmp slt i32 %109, %110
  br i1 %111, label %113, label %112

112:                                              ; preds = %108
  call void @llvm.lifetime.end.p0(i64 4, ptr %19) #10
  br label %139

113:                                              ; preds = %108
  %114 = load ptr, ptr %5, align 8, !tbaa !17
  %115 = getelementptr inbounds nuw %struct.AVTXContext, ptr %114, i32 0, i32 6
  %116 = getelementptr inbounds [4 x ptr], ptr %115, i64 0, i64 1
  %117 = load ptr, ptr %116, align 8, !tbaa !8
  %118 = load ptr, ptr %5, align 8, !tbaa !17
  %119 = getelementptr inbounds nuw %struct.AVTXContext, ptr %118, i32 0, i32 5
  %120 = load ptr, ptr %119, align 8, !tbaa !65
  %121 = getelementptr inbounds %struct.AVTXContext, ptr %120, i64 1
  %122 = load ptr, ptr %15, align 8, !tbaa !57
  %123 = load i32, ptr %10, align 4, !tbaa !4
  %124 = load i32, ptr %19, align 4, !tbaa !4
  %125 = mul nsw i32 %123, %124
  %126 = sext i32 %125 to i64
  %127 = getelementptr inbounds %struct.AVComplexInt32, ptr %122, i64 %126
  %128 = load ptr, ptr %5, align 8, !tbaa !17
  %129 = getelementptr inbounds nuw %struct.AVTXContext, ptr %128, i32 0, i32 4
  %130 = load ptr, ptr %129, align 8, !tbaa !64
  %131 = load i32, ptr %10, align 4, !tbaa !4
  %132 = load i32, ptr %19, align 4, !tbaa !4
  %133 = mul nsw i32 %131, %132
  %134 = sext i32 %133 to i64
  %135 = getelementptr inbounds %struct.AVComplexInt32, ptr %130, i64 %134
  call void %117(ptr noundef %121, ptr noundef %127, ptr noundef %135, i64 noundef 8)
  br label %136

136:                                              ; preds = %113
  %137 = load i32, ptr %19, align 4, !tbaa !4
  %138 = add nsw i32 %137, 1
  store i32 %138, ptr %19, align 4, !tbaa !4
  br label %108, !llvm.loop !80

139:                                              ; preds = %112
  call void @llvm.lifetime.start.p0(i64 4, ptr %20) #10
  store i32 0, ptr %20, align 4, !tbaa !4
  br label %140

140:                                              ; preds = %160, %139
  %141 = load i32, ptr %20, align 4, !tbaa !4
  %142 = load i32, ptr %11, align 4, !tbaa !4
  %143 = icmp slt i32 %141, %142
  br i1 %143, label %145, label %144

144:                                              ; preds = %140
  call void @llvm.lifetime.end.p0(i64 4, ptr %20) #10
  br label %163

145:                                              ; preds = %140
  %146 = load ptr, ptr %17, align 8, !tbaa !57
  %147 = load i32, ptr %20, align 4, !tbaa !4
  %148 = sext i32 %147 to i64
  %149 = load i64, ptr %8, align 8, !tbaa !30
  %150 = mul nsw i64 %148, %149
  %151 = getelementptr inbounds %struct.AVComplexInt32, ptr %146, i64 %150
  %152 = load ptr, ptr %15, align 8, !tbaa !57
  %153 = load ptr, ptr %13, align 8, !tbaa !19
  %154 = load i32, ptr %20, align 4, !tbaa !4
  %155 = sext i32 %154 to i64
  %156 = getelementptr inbounds i32, ptr %153, i64 %155
  %157 = load i32, ptr %156, align 4, !tbaa !4
  %158 = sext i32 %157 to i64
  %159 = getelementptr inbounds %struct.AVComplexInt32, ptr %152, i64 %158
  call void @llvm.memcpy.p0.p0.i64(ptr align 4 %151, ptr align 4 %159, i64 8, i1 false), !tbaa.struct !35
  br label %160

160:                                              ; preds = %145
  %161 = load i32, ptr %20, align 4, !tbaa !4
  %162 = add nsw i32 %161, 1
  store i32 %162, ptr %20, align 4, !tbaa !4
  br label %140, !llvm.loop !81

163:                                              ; preds = %144
  call void @llvm.lifetime.end.p0(i64 8, ptr %17) #10
  call void @llvm.lifetime.end.p0(i64 8, ptr %16) #10
  call void @llvm.lifetime.end.p0(i64 8, ptr %15) #10
  call void @llvm.lifetime.end.p0(i64 8, ptr %14) #10
  call void @llvm.lifetime.end.p0(i64 8, ptr %13) #10
  call void @llvm.lifetime.end.p0(i64 8, ptr %12) #10
  call void @llvm.lifetime.end.p0(i64 4, ptr %11) #10
  call void @llvm.lifetime.end.p0(i64 4, ptr %10) #10
  call void @llvm.lifetime.end.p0(i64 4, ptr %9) #10
  ret void
}