; Function Attrs: nounwind uwtable
define internal void @ff_tx_fft_pfa_ns_int32_c(ptr noundef readonly captures(none) %0, ptr noundef writeonly captures(none) %1, ptr noundef %2, i64 noundef %3) #3 {
  %5 = getelementptr inbounds nuw i8, ptr %0, i64 32
  %6 = load ptr, ptr %5, align 8, !tbaa !55
  %7 = load i32, ptr %6, align 8, !tbaa !16
  %8 = getelementptr inbounds nuw i8, ptr %6, i64 160
  %9 = load i32, ptr %8, align 8, !tbaa !16
  %10 = load i32, ptr %0, align 8, !tbaa !16
  %11 = getelementptr inbounds nuw i8, ptr %0, i64 8
  %12 = load ptr, ptr %11, align 8, !tbaa !56
  %13 = sext i32 %10 to i64
  %14 = getelementptr inbounds i32, ptr %12, i64 %13
  %15 = getelementptr inbounds nuw i8, ptr %6, i64 168
  %16 = load ptr, ptr %15, align 8, !tbaa !56
  %17 = getelementptr inbounds nuw i8, ptr %6, i64 288
  %18 = load i64, ptr %17, align 8, !tbaa !53
  %19 = and i64 %18, 1
  %.not = icmp eq i64 %19, 0
  %20 = getelementptr inbounds nuw i8, ptr %0, i64 24
  %21 = getelementptr inbounds nuw i8, ptr %0, i64 16
  %.in = select i1 %.not, ptr %21, ptr %20
  %22 = load ptr, ptr %.in, align 8, !tbaa !62
  %23 = lshr i64 %3, 3
  %24 = icmp sgt i32 %9, 0
  br i1 %24, label %.lr.ph, label %.preheader47

.lr.ph:                                           ; preds = %4
  %25 = getelementptr inbounds nuw i8, ptr %0, i64 40
  %26 = zext nneg i32 %9 to i64
  %27 = shl nuw nsw i64 %26, 3
  %28 = sext i32 %7 to i64
  br label %32

.preheader47:                                     ; preds = %32, %4
  %29 = icmp sgt i32 %7, 0
  br i1 %29, label %.lr.ph50, label %.preheader

.lr.ph50:                                         ; preds = %.preheader47
  %30 = getelementptr inbounds nuw i8, ptr %0, i64 48
  %31 = sext i32 %9 to i64
  %wide.trip.count57 = zext nneg i32 %7 to i64
  br label %43

32:                                               ; preds = %.lr.ph, %32
  %indvars.iv = phi i64 [ 0, %.lr.ph ], [ %indvars.iv.next, %32 ]
  %33 = load ptr, ptr %25, align 8, !tbaa !4
  %34 = load ptr, ptr %5, align 8, !tbaa !55
  %35 = load ptr, ptr %20, align 8, !tbaa !54
  %36 = getelementptr inbounds nuw i32, ptr %16, i64 %indvars.iv
  %37 = load i32, ptr %36, align 4, !tbaa !10
  %38 = sext i32 %37 to i64
  %39 = getelementptr inbounds %struct.AVComplexInt32, ptr %35, i64 %38
  %40 = mul nsw i64 %indvars.iv, %28
  %41 = getelementptr inbounds %struct.AVComplexInt32, ptr %2, i64 %40
  tail call void %33(ptr noundef %34, ptr noundef %39, ptr noundef %41, i64 noundef %27) #16
  %indvars.iv.next = add nuw nsw i64 %indvars.iv, 1
  %exitcond.not = icmp eq i64 %indvars.iv.next, %26
  br i1 %exitcond.not, label %.preheader47, label %32, !llvm.loop !70

.preheader:                                       ; preds = %43, %.preheader47
  %42 = icmp sgt i32 %10, 0
  br i1 %42, label %.lr.ph52.preheader, label %._crit_edge

.lr.ph52.preheader:                               ; preds = %.preheader
  %wide.trip.count62 = zext nneg i32 %10 to i64
  br label %.lr.ph52

43:                                               ; preds = %.lr.ph50, %43
  %indvars.iv54 = phi i64 [ 0, %.lr.ph50 ], [ %indvars.iv.next55, %43 ]
  %44 = load ptr, ptr %30, align 8, !tbaa !4
  %45 = load ptr, ptr %5, align 8, !tbaa !55
  %46 = getelementptr inbounds nuw i8, ptr %45, i64 160
  %47 = mul nsw i64 %indvars.iv54, %31
  %48 = getelementptr inbounds %struct.AVComplexInt32, ptr %22, i64 %47
  %49 = load ptr, ptr %20, align 8, !tbaa !54
  %50 = getelementptr inbounds %struct.AVComplexInt32, ptr %49, i64 %47
  tail call void %44(ptr noundef nonnull %46, ptr noundef %48, ptr noundef %50, i64 noundef 8) #16
  %indvars.iv.next55 = add nuw nsw i64 %indvars.iv54, 1
  %exitcond58.not = icmp eq i64 %indvars.iv.next55, %wide.trip.count57
  br i1 %exitcond58.not, label %.preheader, label %43, !llvm.loop !71

._crit_edge:                                      ; preds = %.lr.ph52, %.preheader
  ret void

.lr.ph52:                                         ; preds = %.lr.ph52.preheader, %.lr.ph52
  %indvars.iv59 = phi i64 [ 0, %.lr.ph52.preheader ], [ %indvars.iv.next60, %.lr.ph52 ]
  %51 = mul nuw nsw i64 %23, %indvars.iv59
  %52 = getelementptr inbounds nuw %struct.AVComplexInt32, ptr %1, i64 %51
  %53 = getelementptr inbounds nuw i32, ptr %14, i64 %indvars.iv59
  %54 = load i32, ptr %53, align 4, !tbaa !10
  %55 = sext i32 %54 to i64
  %56 = getelementptr inbounds %struct.AVComplexInt32, ptr %22, i64 %55
  %57 = load i64, ptr %56, align 4
  store i64 %57, ptr %52, align 4
  %indvars.iv.next60 = add nuw nsw i64 %indvars.iv59, 1
  %exitcond63.not = icmp eq i64 %indvars.iv.next60, %wide.trip.count62
  br i1 %exitcond63.not, label %._crit_edge, label %.lr.ph52, !llvm.loop !72
}